; ModuleID = '9/57.c'
source_filename = "9/57.c"
target datalayout = "e-m:e-p270:32:32-p271:32:32-p272:64:64-i64:64-f80:128-n8:16:32:64-S128"
target triple = "x86_64-pc-linux-gnu"

%struct.pat = type { [10 x i8], i32, i32 }

@.str = private unnamed_addr constant [3 x i8] c"%d\00", align 1
@.str.1 = private unnamed_addr constant [6 x i8] c"%s %d\00", align 1
@pa = common dso_local global [100 x %struct.pat] zeroinitializer, align 16
@temp = common dso_local global %struct.pat zeroinitializer, align 4
@temp2 = common dso_local global %struct.pat zeroinitializer, align 4

; Function Attrs: noinline nounwind uwtable
define dso_local i32 @main() #0 {
  %1 = alloca i32, align 4
  %2 = alloca i32, align 4
  %3 = alloca i32, align 4
  %4 = alloca i32, align 4
  %5 = alloca i32, align 4
  %6 = alloca i32, align 4
  %7 = alloca i32, align 4
  store i32 0, i32* %1, align 4
  %8 = call i32 (i8*, ...) @__isoc99_scanf(i8* getelementptr inbounds ([3 x i8], [3 x i8]* @.str, i64 0, i64 0), i32* %6)
  store i32 1, i32* %2, align 4
  br label %9

9:                                                ; preds = %28, %0
  %10 = load i32, i32* %2, align 4
  %11 = load i32, i32* %6, align 4
  %12 = icmp sle i32 %10, %11
  br i1 %12, label %13, label %31

13:                                               ; preds = %9
  %14 = load i32, i32* %2, align 4
  %15 = sext i32 %14 to i64
  %16 = getelementptr inbounds [100 x %struct.pat], [100 x %struct.pat]* @pa, i64 0, i64 %15
  %17 = getelementptr inbounds %struct.pat, %struct.pat* %16, i32 0, i32 0
  %18 = load i32, i32* %2, align 4
  %19 = sext i32 %18 to i64
  %20 = getelementptr inbounds [100 x %struct.pat], [100 x %struct.pat]* @pa, i64 0, i64 %19
  %21 = getelementptr inbounds %struct.pat, %struct.pat* %20, i32 0, i32 1
  %22 = call i32 (i8*, ...) @__isoc99_scanf(i8* getelementptr inbounds ([6 x i8], [6 x i8]* @.str.1, i64 0, i64 0), [10 x i8]* %17, i32* %21)
  %23 = load i32, i32* %2, align 4
  %24 = load i32, i32* %2, align 4
  %25 = sext i32 %24 to i64
  %26 = getelementptr inbounds [100 x %struct.pat], [100 x %struct.pat]* @pa, i64 0, i64 %25
  %27 = getelementptr inbounds %struct.pat, %struct.pat* %26, i32 0, i32 2
  store i32 %23, i32* %27, align 4
  br label %28

28:                                               ; preds = %13
  %29 = load i32, i32* %2, align 4
  %30 = add nsw i32 %29, 1
  store i32 %30, i32* %2, align 4
  br label %9

31:                                               ; preds = %9
  store i32 1, i32* %2, align 4
  br label %32

32:                                               ; preds = %104, %31
  %33 = load i32, i32* %2, align 4
  %34 = load i32, i32* %6, align 4
  %35 = icmp sle i32 %33, %34
  br i1 %35, label %36, label %107

36:                                               ; preds = %32
  %37 = load i32, i32* %2, align 4
  %38 = sext i32 %37 to i64
  %39 = getelementptr inbounds [100 x %struct.pat], [100 x %struct.pat]* @pa, i64 0, i64 %38
  %40 = getelementptr inbounds %struct.pat, %struct.pat* %39, i32 0, i32 1
  %41 = load i32, i32* %40, align 4
  %42 = icmp sge i32 %41, 60
  br i1 %42, label %43, label %103

43:                                               ; preds = %36
  store i32 1, i32* %3, align 4
  br label %44

44:                                               ; preds = %99, %43
  %45 = load i32, i32* %3, align 4
  %46 = load i32, i32* %2, align 4
  %47 = icmp sle i32 %45, %46
  br i1 %47, label %48, label %102

48:                                               ; preds = %44
  %49 = load i32, i32* %2, align 4
  %50 = sext i32 %49 to i64
  %51 = getelementptr inbounds [100 x %struct.pat], [100 x %struct.pat]* @pa, i64 0, i64 %50
  %52 = getelementptr inbounds %struct.pat, %struct.pat* %51, i32 0, i32 1
  %53 = load i32, i32* %52, align 4
  %54 = load i32, i32* %3, align 4
  %55 = sext i32 %54 to i64
  %56 = getelementptr inbounds [100 x %struct.pat], [100 x %struct.pat]* @pa, i64 0, i64 %55
  %57 = getelementptr inbounds %struct.pat, %struct.pat* %56, i32 0, i32 1
  %58 = load i32, i32* %57, align 4
  %59 = icmp sgt i32 %53, %58
  br i1 %59, label %60, label %98

60:                                               ; preds = %48
  %61 = load i32, i32* %3, align 4
  %62 = sext i32 %61 to i64
  %63 = getelementptr inbounds [100 x %struct.pat], [100 x %struct.pat]* @pa, i64 0, i64 %62
  %64 = bitcast %struct.pat* %63 to i8*
  call void @llvm.memcpy.p0i8.p0i8.i64(i8* align 4 getelementptr inbounds (%struct.pat, %struct.pat* @temp, i32 0, i32 0, i32 0), i8* align 4 %64, i64 20, i1 false)
  %65 = load i32, i32* %3, align 4
  %66 = sext i32 %65 to i64
  %67 = getelementptr inbounds [100 x %struct.pat], [100 x %struct.pat]* @pa, i64 0, i64 %66
  %68 = load i32, i32* %2, align 4
  %69 = sext i32 %68 to i64
  %70 = getelementptr inbounds [100 x %struct.pat], [100 x %struct.pat]* @pa, i64 0, i64 %69
  %71 = bitcast %struct.pat* %67 to i8*
  %72 = bitcast %struct.pat* %70 to i8*
  call void @llvm.memcpy.p0i8.p0i8.i64(i8* align 4 %71, i8* align 4 %72, i64 20, i1 false)
  %73 = load i32, i32* %2, align 4
  %74 = sub nsw i32 %73, 1
  store i32 %74, i32* %4, align 4
  br label %75

75:                                               ; preds = %89, %60
  %76 = load i32, i32* %4, align 4
  %77 = load i32, i32* %3, align 4
  %78 = icmp sgt i32 %76, %77
  br i1 %78, label %79, label %92

79:                                               ; preds = %75
  %80 = load i32, i32* %4, align 4
  %81 = add nsw i32 %80, 1
  %82 = sext i32 %81 to i64
  %83 = getelementptr inbounds [100 x %struct.pat], [100 x %struct.pat]* @pa, i64 0, i64 %82
  %84 = load i32, i32* %4, align 4
  %85 = sext i32 %84 to i64
  %86 = getelementptr inbounds [100 x %struct.pat], [100 x %struct.pat]* @pa, i64 0, i64 %85
  %87 = bitcast %struct.pat* %83 to i8*
  %88 = bitcast %struct.pat* %86 to i8*
  call void @llvm.memcpy.p0i8.p0i8.i64(i8* align 4 %87, i8* align 4 %88, i64 20, i1 false)
  br label %89

89:                                               ; preds = %79
  %90 = load i32, i32* %4, align 4
  %91 = add nsw i32 %90, -1
  store i32 %91, i32* %4, align 4
  br label %75

92:                                               ; preds = %75
  %93 = load i32, i32* %3, align 4
  %94 = add nsw i32 %93, 1
  %95 = sext i32 %94 to i64
  %96 = getelementptr inbounds [100 x %struct.pat], [100 x %struct.pat]* @pa, i64 0, i64 %95
  %97 = bitcast %struct.pat* %96 to i8*
  call void @llvm.memcpy.p0i8.p0i8.i64(i8* align 4 %97, i8* align 4 getelementptr inbounds (%struct.pat, %struct.pat* @temp, i32 0, i32 0, i32 0), i64 20, i1 false)
  br label %102

98:                                               ; preds = %48
  br label %99

99:                                               ; preds = %98
  %100 = load i32, i32* %3, align 4
  %101 = add nsw i32 %100, 1
  store i32 %101, i32* %3, align 4
  br label %44

102:                                              ; preds = %92, %44
  br label %103

103:                                              ; preds = %102, %36
  br label %104

104:                                              ; preds = %103
  %105 = load i32, i32* %2, align 4
  %106 = add nsw i32 %105, 1
  store i32 %106, i32* %2, align 4
  br label %32

107:                                              ; preds = %32
  store i32 1, i32* %2, align 4
  br label %108

108:                                              ; preds = %119, %107
  %109 = load i32, i32* %2, align 4
  %110 = load i32, i32* %6, align 4
  %111 = icmp sle i32 %109, %110
  br i1 %111, label %112, label %122

112:                                              ; preds = %108
  %113 = load i32, i32* %2, align 4
  %114 = sext i32 %113 to i64
  %115 = getelementptr inbounds [100 x %struct.pat], [100 x %struct.pat]* @pa, i64 0, i64 %114
  %116 = getelementptr inbounds %struct.pat, %struct.pat* %115, i32 0, i32 0
  %117 = getelementptr inbounds [10 x i8], [10 x i8]* %116, i64 0, i64 0
  %118 = call i32 @puts(i8* %117)
  br label %119

119:                                              ; preds = %112
  %120 = load i32, i32* %2, align 4
  %121 = add nsw i32 %120, 1
  store i32 %121, i32* %2, align 4
  br label %108

122:                                              ; preds = %108
  ret i32 0
}

declare dso_local i32 @__isoc99_scanf(i8*, ...) #1

; Function Attrs: argmemonly nounwind willreturn
declare void @llvm.memcpy.p0i8.p0i8.i64(i8* noalias nocapture writeonly, i8* noalias nocapture readonly, i64, i1 immarg) #2

declare dso_local i32 @puts(i8*) #1


!llvm.module.flags = !{!0}
!llvm.ident = !{!1}

!0 = !{i32 1, !"wchar_size", i32 4}
!1 = !{!"clang version 10.0.0-4ubuntu1 "}
